target datalayout = "e-m:e-p270:32:32-p271:32:32-p272:64:64-i64:64-i128:128-f80:128-n8:16:32:64-S128"
target triple = "x86_64-pc-linux-gnu"

%struct._object = type { %union.anon, ptr }
%union.anon = type { i64 }

@_Py_NoneStruct = external global %struct._object, align 8
@.str.19 = private unnamed_addr constant [3 x i8] c"On\00", align 1
@uninitialized = internal constant [14 x i8] c"uninitialized\00", align 1
@.str.20 = private unnamed_addr constant [5 x i8] c"(On)\00", align 1
@.str.21 = private unnamed_addr constant [6 x i8] c"(y#n)\00", align 1

; Function Attrs: nounwind uwtable
define internal ptr @bytes_asstringandsize(ptr noundef %0, ptr noundef %1) #0 {
  %3 = alloca ptr, align 8
  %4 = alloca ptr, align 8
  %5 = alloca ptr, align 8
  %6 = alloca ptr, align 8
  %7 = alloca i64, align 8
  %8 = alloca ptr, align 8
  %9 = alloca i64, align 8
  %10 = alloca i32, align 4
  store ptr %0, ptr %4, align 8, !tbaa !3
  store ptr %1, ptr %5, align 8, !tbaa !3
  call void @llvm.lifetime.start.p0(i64 8, ptr %6) #6
  call void @llvm.lifetime.start.p0(i64 8, ptr %7) #6
  call void @llvm.lifetime.start.p0(i64 8, ptr %8) #6
  store ptr @uninitialized, ptr %8, align 8, !tbaa !10
  call void @llvm.lifetime.start.p0(i64 8, ptr %9) #6
  store i64 236892191, ptr %9, align 8, !tbaa !8
  %11 = load ptr, ptr %5, align 8, !tbaa !3
  %12 = call i32 (ptr, ptr, ...) @PyArg_ParseTuple(ptr noundef %11, ptr noundef @.str.19, ptr noundef %6, ptr noundef %7)
  %13 = icmp ne i32 %12, 0
  br i1 %13, label %15, label %14

14:                                               ; preds = %2
  store ptr null, ptr %3, align 8
  store i32 1, ptr %10, align 4
  br label %38

15:                                               ; preds = %2
  br label %16

16:                                               ; preds = %15
  %17 = load ptr, ptr %6, align 8, !tbaa !3
  %18 = icmp eq ptr %17, @_Py_NoneStruct
  br i1 %18, label %19, label %20

19:                                               ; preds = %16
  store ptr null, ptr %6, align 8, !tbaa !3
  br label %20

20:                                               ; preds = %19, %16
  br label %21

21:                                               ; preds = %20
  br label %22

22:                                               ; preds = %21
  %23 = load ptr, ptr %6, align 8, !tbaa !3
  %24 = call i32 @PyBytes_AsStringAndSize(ptr noundef %23, ptr noundef %8, ptr noundef %9)
  %25 = icmp slt i32 %24, 0
  br i1 %25, label %26, label %27

26:                                               ; preds = %22
  store ptr null, ptr %3, align 8
  store i32 1, ptr %10, align 4
  br label %38

27:                                               ; preds = %22
  %28 = load ptr, ptr %8, align 8, !tbaa !10
  %29 = icmp eq ptr %28, null
  br i1 %29, label %30, label %33

30:                                               ; preds = %27
  %31 = load i64, ptr %9, align 8, !tbaa !8
  %32 = call ptr (ptr, ...) @Py_BuildValue(ptr noundef @.str.20, ptr noundef @_Py_NoneStruct, i64 noundef %31)
  store ptr %32, ptr %3, align 8
  store i32 1, ptr %10, align 4
  br label %38

33:                                               ; preds = %27
  %34 = load ptr, ptr %8, align 8, !tbaa !10
  %35 = load i64, ptr %7, align 8, !tbaa !8
  %36 = load i64, ptr %9, align 8, !tbaa !8
  %37 = call ptr (ptr, ...) @Py_BuildValue(ptr noundef @.str.21, ptr noundef %34, i64 noundef %35, i64 noundef %36)
  store ptr %37, ptr %3, align 8
  store i32 1, ptr %10, align 4
  br label %38

38:                                               ; preds = %33, %30, %26, %14
  call void @llvm.lifetime.end.p0(i64 8, ptr %9) #6
  call void @llvm.lifetime.end.p0(i64 8, ptr %8) #6
  call void @llvm.lifetime.end.p0(i64 8, ptr %7) #6
  call void @llvm.lifetime.end.p0(i64 8, ptr %6) #6
  %39 = load ptr, ptr %3, align 8
  ret ptr %39
}