; Function Attrs: nounwind uwtable
define internal ptr @bytes_asstringandsize(ptr readnone captures(none) %0, ptr noundef %1) #0 {
  %3 = alloca ptr, align 8
  %4 = alloca i64, align 8
  %5 = alloca ptr, align 8
  %6 = alloca i64, align 8
  call void @llvm.lifetime.start.p0(i64 8, ptr nonnull %3) #4
  call void @llvm.lifetime.start.p0(i64 8, ptr nonnull %4) #4
  call void @llvm.lifetime.start.p0(i64 8, ptr nonnull %5) #4
  store ptr @uninitialized, ptr %5, align 8, !tbaa !11
  call void @llvm.lifetime.start.p0(i64 8, ptr nonnull %6) #4
  store i64 236892191, ptr %6, align 8, !tbaa !9
  %7 = call i32 (ptr, ptr, ...) @PyArg_ParseTuple(ptr noundef %1, ptr noundef nonnull @.str.19, ptr noundef nonnull %3, ptr noundef nonnull %4) #4
  %.not = icmp eq i32 %7, 0
  br i1 %.not, label %26, label %8

8:                                                ; preds = %2
  %9 = load ptr, ptr %3, align 8, !tbaa !13
  %10 = icmp eq ptr %9, @_Py_NoneStruct
  br i1 %10, label %11, label %12

11:                                               ; preds = %8
  store ptr null, ptr %3, align 8, !tbaa !13
  br label %12

12:                                               ; preds = %11, %8
  %13 = phi ptr [ null, %11 ], [ %9, %8 ]
  %14 = call i32 @PyBytes_AsStringAndSize(ptr noundef %13, ptr noundef nonnull %5, ptr noundef nonnull %6) #4
  %15 = icmp slt i32 %14, 0
  br i1 %15, label %26, label %16

16:                                               ; preds = %12
  %17 = load ptr, ptr %5, align 8, !tbaa !11
  %18 = icmp eq ptr %17, null
  br i1 %18, label %19, label %22

19:                                               ; preds = %16
  %20 = load i64, ptr %6, align 8, !tbaa !9
  %21 = call ptr (ptr, ...) @Py_BuildValue(ptr noundef nonnull @.str.20, ptr noundef nonnull @_Py_NoneStruct, i64 noundef %20) #4
  br label %26

22:                                               ; preds = %16
  %23 = load i64, ptr %4, align 8, !tbaa !9
  %24 = load i64, ptr %6, align 8, !tbaa !9
  %25 = call ptr (ptr, ...) @Py_BuildValue(ptr noundef nonnull @.str.21, ptr noundef nonnull %17, i64 noundef %23, i64 noundef %24) #4
  br label %26

26:                                               ; preds = %12, %2, %22, %19
  %.0 = phi ptr [ %21, %19 ], [ %25, %22 ], [ null, %2 ], [ null, %12 ]
  call void @llvm.lifetime.end.p0(i64 8, ptr nonnull %6) #4
  call void @llvm.lifetime.end.p0(i64 8, ptr nonnull %5) #4
  call void @llvm.lifetime.end.p0(i64 8, ptr nonnull %4) #4
  call void @llvm.lifetime.end.p0(i64 8, ptr nonnull %3) #4
  ret ptr %.0
}